target datalayout = "e-m:e-p270:32:32-p271:32:32-p272:64:64-i64:64-i128:128-f80:128-n8:16:32:64-S128"
target triple = "x86_64-pc-linux-gnu"

%struct.SurfaceDataRasInfo = type { %struct.SurfaceDataBounds, ptr, i32, i32, i32, i32, ptr, ptr, ptr, ptr, ptr, ptr, i32, %union.anon.0 }
%struct.SurfaceDataBounds = type { i32, i32, i32, i32 }
%union.anon.0 = type { ptr, [56 x i8] }
%struct._CompositeInfo = type { i32, %union.anon.1, i32 }
%union.anon.1 = type { float }

; Function Attrs: nounwind uwtable
define hidden void @IntArgbPreToUshortGraySrcOverMaskBlit(ptr noundef %0, ptr noundef %1, ptr noundef %2, i32 noundef %3, i32 noundef %4, i32 noundef %5, i32 noundef %6, ptr noundef %7, ptr noundef %8, ptr noundef %9, ptr noundef %10) #1 {
  %12 = alloca ptr, align 8
  %13 = alloca ptr, align 8
  %14 = alloca ptr, align 8
  %15 = alloca i32, align 4
  %16 = alloca i32, align 4
  %17 = alloca i32, align 4
  %18 = alloca i32, align 4
  %19 = alloca ptr, align 8
  %20 = alloca ptr, align 8
  %21 = alloca ptr, align 8
  %22 = alloca ptr, align 8
  %23 = alloca i32, align 4
  %24 = alloca i32, align 4
  %25 = alloca i32, align 4
  %26 = alloca ptr, align 8
  %27 = alloca ptr, align 8
  %28 = alloca i32, align 4
  %29 = alloca i32, align 4
  %30 = alloca i32, align 4
  %31 = alloca i32, align 4
  %32 = alloca i32, align 4
  %33 = alloca i32, align 4
  %34 = alloca i32, align 4
  %35 = alloca i32, align 4
  %36 = alloca i32, align 4
  %37 = alloca i32, align 4
  %38 = alloca i32, align 4
  %39 = alloca i32, align 4
  %40 = alloca i32, align 4
  %41 = alloca i32, align 4
  %42 = alloca i32, align 4
  %43 = alloca i32, align 4
  %44 = alloca i32, align 4
  %45 = alloca i32, align 4
  %46 = alloca i32, align 4
  %47 = alloca i32, align 4
  %48 = alloca i32, align 4
  %49 = alloca i32, align 4
  store ptr %0, ptr %12, align 8
  store ptr %1, ptr %13, align 8
  store ptr %2, ptr %14, align 8
  store i32 %3, ptr %15, align 4
  store i32 %4, ptr %16, align 4
  store i32 %5, ptr %17, align 4
  store i32 %6, ptr %18, align 4
  store ptr %7, ptr %19, align 8
  store ptr %8, ptr %20, align 8
  store ptr %9, ptr %21, align 8
  store ptr %10, ptr %22, align 8
  %50 = load ptr, ptr %22, align 8
  %51 = getelementptr inbounds %struct._CompositeInfo, ptr %50, i32 0, i32 1
  %52 = load float, ptr %51, align 4
  %53 = fpext float %52 to double
  %54 = call double @llvm.fmuladd.f64(double %53, double 6.553500e+04, double 5.000000e-01)
  %55 = fptoui double %54 to i32
  store i32 %55, ptr %23, align 4
  %56 = load ptr, ptr %20, align 8
  %57 = getelementptr inbounds %struct.SurfaceDataRasInfo, ptr %56, i32 0, i32 4
  %58 = load i32, ptr %57, align 8
  store i32 %58, ptr %24, align 4
  %59 = load ptr, ptr %19, align 8
  %60 = getelementptr inbounds %struct.SurfaceDataRasInfo, ptr %59, i32 0, i32 4
  %61 = load i32, ptr %60, align 8
  store i32 %61, ptr %25, align 4
  %62 = load ptr, ptr %13, align 8
  store ptr %62, ptr %26, align 8
  %63 = load ptr, ptr %12, align 8
  store ptr %63, ptr %27, align 8
  store i32 0, ptr %28, align 4
  %64 = load i32, ptr %17, align 4
  %65 = mul nsw i32 %64, 4
  %66 = load i32, ptr %24, align 4
  %67 = sub nsw i32 %66, %65
  store i32 %67, ptr %24, align 4
  %68 = load i32, ptr %17, align 4
  %69 = mul nsw i32 %68, 2
  %70 = load i32, ptr %25, align 4
  %71 = sub nsw i32 %70, %69
  store i32 %71, ptr %25, align 4
  %72 = load ptr, ptr %14, align 8
  %73 = icmp ne ptr %72, null
  br i1 %73, label %74, label %221

74:                                               ; preds = %11
  %75 = load i32, ptr %15, align 4
  %76 = load ptr, ptr %14, align 8
  %77 = sext i32 %75 to i64
  %78 = getelementptr inbounds i8, ptr %76, i64 %77
  store ptr %78, ptr %14, align 8
  %79 = load i32, ptr %17, align 4
  %80 = load i32, ptr %16, align 4
  %81 = sub nsw i32 %80, %79
  store i32 %81, ptr %16, align 4
  br label %82

82:                                               ; preds = %216, %74
  %83 = load i32, ptr %17, align 4
  store i32 %83, ptr %29, align 4
  br label %84

84:                                               ; preds = %193, %82
  %85 = load ptr, ptr %14, align 8
  %86 = getelementptr inbounds i8, ptr %85, i32 1
  store ptr %86, ptr %14, align 8
  %87 = load i8, ptr %85, align 1
  %88 = zext i8 %87 to i32
  store i32 %88, ptr %30, align 4
  %89 = load i32, ptr %30, align 4
  %90 = icmp ne i32 %89, 0
  br i1 %90, label %91, label %184

91:                                               ; preds = %84
  %92 = load i32, ptr %30, align 4
  %93 = shl i32 %92, 8
  %94 = load i32, ptr %30, align 4
  %95 = add i32 %93, %94
  store i32 %95, ptr %30, align 4
  %96 = load i32, ptr %30, align 4
  %97 = load i32, ptr %23, align 4
  %98 = mul i32 %96, %97
  %99 = udiv i32 %98, 65535
  store i32 %99, ptr %30, align 4
  br label %100

100:                                              ; preds = %91
  br label %101

101:                                              ; preds = %100
  %102 = load ptr, ptr %26, align 8
  %103 = getelementptr inbounds i32, ptr %102, i64 0
  %104 = load i32, ptr %103, align 4
  store i32 %104, ptr %28, align 4
  %105 = load i32, ptr %28, align 4
  %106 = lshr i32 %105, 24
  store i32 %106, ptr %31, align 4
  br label %107

107:                                              ; preds = %101
  %108 = load i32, ptr %31, align 4
  %109 = shl i32 %108, 8
  %110 = load i32, ptr %31, align 4
  %111 = add i32 %109, %110
  store i32 %111, ptr %31, align 4
  br label %112

112:                                              ; preds = %107
  %113 = load i32, ptr %30, align 4
  %114 = load i32, ptr %31, align 4
  %115 = mul i32 %113, %114
  %116 = udiv i32 %115, 65535
  store i32 %116, ptr %31, align 4
  %117 = load i32, ptr %31, align 4
  %118 = icmp ne i32 %117, 0
  br i1 %118, label %119, label %183

119:                                              ; preds = %112
  %120 = load i32, ptr %30, align 4
  store i32 %120, ptr %33, align 4
  br label %121

121:                                              ; preds = %119
  br label %122

122:                                              ; preds = %121
  %123 = load i32, ptr %28, align 4
  %124 = and i32 %123, 255
  store i32 %124, ptr %36, align 4
  %125 = load i32, ptr %28, align 4
  %126 = ashr i32 %125, 8
  %127 = and i32 %126, 255
  store i32 %127, ptr %35, align 4
  %128 = load i32, ptr %28, align 4
  %129 = ashr i32 %128, 16
  %130 = and i32 %129, 255
  store i32 %130, ptr %34, align 4
  br label %131

131:                                              ; preds = %122
  %132 = load i32, ptr %34, align 4
  %133 = mul nsw i32 19672, %132
  %134 = load i32, ptr %35, align 4
  %135 = mul nsw i32 38621, %134
  %136 = add nsw i32 %133, %135
  %137 = load i32, ptr %36, align 4
  %138 = mul nsw i32 7500, %137
  %139 = add nsw i32 %136, %138
  %140 = sdiv i32 %139, 256
  %141 = trunc i32 %140 to i16
  %142 = zext i16 %141 to i32
  store i32 %142, ptr %32, align 4
  br label %143

143:                                              ; preds = %131
  %144 = load i32, ptr %31, align 4
  %145 = icmp ult i32 %144, 65535
  br i1 %145, label %146, label %169

146:                                              ; preds = %143
  %147 = load i32, ptr %31, align 4
  %148 = sub i32 65535, %147
  store i32 %148, ptr %39, align 4
  store i32 65535, ptr %37, align 4
  %149 = load i32, ptr %39, align 4
  %150 = load i32, ptr %37, align 4
  %151 = mul i32 %149, %150
  %152 = udiv i32 %151, 65535
  store i32 %152, ptr %37, align 4
  %153 = load i32, ptr %37, align 4
  store i32 %153, ptr %39, align 4
  %154 = load ptr, ptr %27, align 8
  %155 = getelementptr inbounds i16, ptr %154, i64 0
  %156 = load i16, ptr %155, align 2
  %157 = zext i16 %156 to i32
  store i32 %157, ptr %38, align 4
  %158 = load i32, ptr %37, align 4
  %159 = load i32, ptr %31, align 4
  %160 = add i32 %159, %158
  store i32 %160, ptr %31, align 4
  %161 = load i32, ptr %39, align 4
  %162 = load i32, ptr %38, align 4
  %163 = mul i32 %161, %162
  %164 = load i32, ptr %33, align 4
  %165 = load i32, ptr %32, align 4
  %166 = mul i32 %164, %165
  %167 = add i32 %163, %166
  %168 = udiv i32 %167, 65535
  store i32 %168, ptr %32, align 4
  br label %178

169:                                              ; preds = %143
  %170 = load i32, ptr %33, align 4
  %171 = icmp ult i32 %170, 65535
  br i1 %171, label %172, label %177

172:                                              ; preds = %169
  %173 = load i32, ptr %33, align 4
  %174 = load i32, ptr %32, align 4
  %175 = mul i32 %173, %174
  %176 = udiv i32 %175, 65535
  store i32 %176, ptr %32, align 4
  br label %177

177:                                              ; preds = %172, %169
  br label %178

178:                                              ; preds = %177, %146
  %179 = load i32, ptr %32, align 4
  %180 = trunc i32 %179 to i16
  %181 = load ptr, ptr %27, align 8
  %182 = getelementptr inbounds i16, ptr %181, i64 0
  store i16 %180, ptr %182, align 2
  br label %183

183:                                              ; preds = %178, %112
  br label %184

184:                                              ; preds = %183, %84
  %185 = load ptr, ptr %26, align 8
  %186 = ptrtoint ptr %185 to i64
  %187 = add nsw i64 %186, 4
  %188 = inttoptr i64 %187 to ptr
  store ptr %188, ptr %26, align 8
  %189 = load ptr, ptr %27, align 8
  %190 = ptrtoint ptr %189 to i64
  %191 = add nsw i64 %190, 2
  %192 = inttoptr i64 %191 to ptr
  store ptr %192, ptr %27, align 8
  br label %193

193:                                              ; preds = %184
  %194 = load i32, ptr %29, align 4
  %195 = add nsw i32 %194, -1
  store i32 %195, ptr %29, align 4
  %196 = icmp sgt i32 %195, 0
  br i1 %196, label %84, label %197, !llvm.loop !63

197:                                              ; preds = %193
  %198 = load ptr, ptr %26, align 8
  %199 = ptrtoint ptr %198 to i64
  %200 = load i32, ptr %24, align 4
  %201 = sext i32 %200 to i64
  %202 = add nsw i64 %199, %201
  %203 = inttoptr i64 %202 to ptr
  store ptr %203, ptr %26, align 8
  %204 = load ptr, ptr %27, align 8
  %205 = ptrtoint ptr %204 to i64
  %206 = load i32, ptr %25, align 4
  %207 = sext i32 %206 to i64
  %208 = add nsw i64 %205, %207
  %209 = inttoptr i64 %208 to ptr
  store ptr %209, ptr %27, align 8
  %210 = load ptr, ptr %14, align 8
  %211 = ptrtoint ptr %210 to i64
  %212 = load i32, ptr %16, align 4
  %213 = sext i32 %212 to i64
  %214 = add nsw i64 %211, %213
  %215 = inttoptr i64 %214 to ptr
  store ptr %215, ptr %14, align 8
  br label %216

216:                                              ; preds = %197
  %217 = load i32, ptr %18, align 4
  %218 = add nsw i32 %217, -1
  store i32 %218, ptr %18, align 4
  %219 = icmp sgt i32 %218, 0
  br i1 %219, label %82, label %220, !llvm.loop !64

220:                                              ; preds = %216
  br label %339

221:                                              ; preds = %11
  br label %222

222:                                              ; preds = %334, %221
  %223 = load i32, ptr %17, align 4
  store i32 %223, ptr %40, align 4
  br label %224

224:                                              ; preds = %317, %222
  br label %225

225:                                              ; preds = %224
  br label %226

226:                                              ; preds = %225
  %227 = load ptr, ptr %26, align 8
  %228 = getelementptr inbounds i32, ptr %227, i64 0
  %229 = load i32, ptr %228, align 4
  store i32 %229, ptr %28, align 4
  %230 = load i32, ptr %28, align 4
  %231 = lshr i32 %230, 24
  store i32 %231, ptr %41, align 4
  br label %232

232:                                              ; preds = %226
  %233 = load i32, ptr %41, align 4
  %234 = shl i32 %233, 8
  %235 = load i32, ptr %41, align 4
  %236 = add i32 %234, %235
  store i32 %236, ptr %41, align 4
  br label %237

237:                                              ; preds = %232
  %238 = load i32, ptr %23, align 4
  %239 = load i32, ptr %41, align 4
  %240 = mul i32 %238, %239
  %241 = udiv i32 %240, 65535
  store i32 %241, ptr %41, align 4
  %242 = load i32, ptr %41, align 4
  %243 = icmp ne i32 %242, 0
  br i1 %243, label %244, label %308

244:                                              ; preds = %237
  %245 = load i32, ptr %23, align 4
  store i32 %245, ptr %43, align 4
  br label %246

246:                                              ; preds = %244
  br label %247

247:                                              ; preds = %246
  %248 = load i32, ptr %28, align 4
  %249 = and i32 %248, 255
  store i32 %249, ptr %46, align 4
  %250 = load i32, ptr %28, align 4
  %251 = ashr i32 %250, 8
  %252 = and i32 %251, 255
  store i32 %252, ptr %45, align 4
  %253 = load i32, ptr %28, align 4
  %254 = ashr i32 %253, 16
  %255 = and i32 %254, 255
  store i32 %255, ptr %44, align 4
  br label %256

256:                                              ; preds = %247
  %257 = load i32, ptr %44, align 4
  %258 = mul nsw i32 19672, %257
  %259 = load i32, ptr %45, align 4
  %260 = mul nsw i32 38621, %259
  %261 = add nsw i32 %258, %260
  %262 = load i32, ptr %46, align 4
  %263 = mul nsw i32 7500, %262
  %264 = add nsw i32 %261, %263
  %265 = sdiv i32 %264, 256
  %266 = trunc i32 %265 to i16
  %267 = zext i16 %266 to i32
  store i32 %267, ptr %42, align 4
  br label %268

268:                                              ; preds = %256
  %269 = load i32, ptr %41, align 4
  %270 = icmp ult i32 %269, 65535
  br i1 %270, label %271, label %294

271:                                              ; preds = %268
  %272 = load i32, ptr %41, align 4
  %273 = sub i32 65535, %272
  store i32 %273, ptr %49, align 4
  store i32 65535, ptr %47, align 4
  %274 = load i32, ptr %49, align 4
  %275 = load i32, ptr %47, align 4
  %276 = mul i32 %274, %275
  %277 = udiv i32 %276, 65535
  store i32 %277, ptr %47, align 4
  %278 = load i32, ptr %47, align 4
  store i32 %278, ptr %49, align 4
  %279 = load ptr, ptr %27, align 8
  %280 = getelementptr inbounds i16, ptr %279, i64 0
  %281 = load i16, ptr %280, align 2
  %282 = zext i16 %281 to i32
  store i32 %282, ptr %48, align 4
  %283 = load i32, ptr %47, align 4
  %284 = load i32, ptr %41, align 4
  %285 = add i32 %284, %283
  store i32 %285, ptr %41, align 4
  %286 = load i32, ptr %49, align 4
  %287 = load i32, ptr %48, align 4
  %288 = mul i32 %286, %287
  %289 = load i32, ptr %43, align 4
  %290 = load i32, ptr %42, align 4
  %291 = mul i32 %289, %290
  %292 = add i32 %288, %291
  %293 = udiv i32 %292, 65535
  store i32 %293, ptr %42, align 4
  br label %303

294:                                              ; preds = %268
  %295 = load i32, ptr %43, align 4
  %296 = icmp ult i32 %295, 65535
  br i1 %296, label %297, label %302

297:                                              ; preds = %294
  %298 = load i32, ptr %43, align 4
  %299 = load i32, ptr %42, align 4
  %300 = mul i32 %298, %299
  %301 = udiv i32 %300, 65535
  store i32 %301, ptr %42, align 4
  br label %302

302:                                              ; preds = %297, %294
  br label %303

303:                                              ; preds = %302, %271
  %304 = load i32, ptr %42, align 4
  %305 = trunc i32 %304 to i16
  %306 = load ptr, ptr %27, align 8
  %307 = getelementptr inbounds i16, ptr %306, i64 0
  store i16 %305, ptr %307, align 2
  br label %308

308:                                              ; preds = %303, %237
  %309 = load ptr, ptr %26, align 8
  %310 = ptrtoint ptr %309 to i64
  %311 = add nsw i64 %310, 4
  %312 = inttoptr i64 %311 to ptr
  store ptr %312, ptr %26, align 8
  %313 = load ptr, ptr %27, align 8
  %314 = ptrtoint ptr %313 to i64
  %315 = add nsw i64 %314, 2
  %316 = inttoptr i64 %315 to ptr
  store ptr %316, ptr %27, align 8
  br label %317

317:                                              ; preds = %308
  %318 = load i32, ptr %40, align 4
  %319 = add nsw i32 %318, -1
  store i32 %319, ptr %40, align 4
  %320 = icmp sgt i32 %319, 0
  br i1 %320, label %224, label %321, !llvm.loop !65

321:                                              ; preds = %317
  %322 = load ptr, ptr %26, align 8
  %323 = ptrtoint ptr %322 to i64
  %324 = load i32, ptr %24, align 4
  %325 = sext i32 %324 to i64
  %326 = add nsw i64 %323, %325
  %327 = inttoptr i64 %326 to ptr
  store ptr %327, ptr %26, align 8
  %328 = load ptr, ptr %27, align 8
  %329 = ptrtoint ptr %328 to i64
  %330 = load i32, ptr %25, align 4
  %331 = sext i32 %330 to i64
  %332 = add nsw i64 %329, %331
  %333 = inttoptr i64 %332 to ptr
  store ptr %333, ptr %27, align 8
  br label %334

334:                                              ; preds = %321
  %335 = load i32, ptr %18, align 4
  %336 = add nsw i32 %335, -1
  store i32 %336, ptr %18, align 4
  %337 = icmp sgt i32 %336, 0
  br i1 %337, label %222, label %338, !llvm.loop !66

338:                                              ; preds = %334
  br label %339

339:                                              ; preds = %338, %220
  ret void
}