; Function Attrs: nofree norecurse nosync nounwind memory(readwrite, inaccessiblemem: none) uwtable
define hidden void @IntArgbPreToUshortGraySrcOverMaskBlit(ptr noundef %0, ptr noundef %1, ptr noundef %2, i32 noundef %3, i32 noundef %4, i32 noundef %5, i32 noundef %6, ptr nocapture noundef readonly %7, ptr nocapture noundef readonly %8, ptr nocapture readnone %9, ptr nocapture noundef readonly %10) #1 {
  %12 = getelementptr inbounds i8, ptr %10, i64 4
  %13 = load float, ptr %12, align 4
  %14 = fpext float %13 to double
  %15 = tail call double @llvm.fmuladd.f64(double %14, double 6.553500e+04, double 5.000000e-01)
  %16 = fptoui double %15 to i32
  %.fr134 = freeze i32 %16
  %17 = getelementptr inbounds i8, ptr %8, i64 32
  %18 = load i32, ptr %17, align 8
  %19 = getelementptr inbounds i8, ptr %7, i64 32
  %20 = load i32, ptr %19, align 8
  %21 = shl nsw i32 %5, 2
  %22 = sub nsw i32 %18, %21
  %23 = shl nsw i32 %5, 1
  %24 = sub nsw i32 %20, %23
  %.not = icmp eq ptr %2, null
  br i1 %.not, label %.preheader, label %73

.preheader:                                       ; preds = %11
  %25 = sext i32 %22 to i64
  %26 = mul i32 %.fr134, 257
  %27 = icmp ult i32 %.fr134, 65535
  %28 = sext i32 %24 to i64
  br i1 %27, label %.split.us.us, label %.split

.split.us.us:                                     ; preds = %.preheader, %.split132.us.us
  %.2107.us = phi ptr [ %70, %.split132.us.us ], [ %0, %.preheader ]
  %.2.us = phi ptr [ %68, %.split132.us.us ], [ %1, %.preheader ]
  %.1102.us = phi i32 [ %71, %.split132.us.us ], [ %6, %.preheader ]
  br label %29

29:                                               ; preds = %58, %.split.us.us
  %.0110.us.us = phi i32 [ %5, %.split.us.us ], [ %65, %58 ]
  %.3108.us.us = phi ptr [ %.2107.us, %.split.us.us ], [ %64, %58 ]
  %.3.us.us = phi ptr [ %.2.us, %.split.us.us ], [ %61, %58 ]
  %30 = load i32, ptr %.3.us.us, align 4
  %31 = lshr i32 %30, 24
  %32 = mul i32 %26, %31
  %33 = udiv i32 %32, 65535
  %.not123.us.us = icmp ult i32 %32, 65535
  br i1 %.not123.us.us, label %58, label %34

34:                                               ; preds = %29
  %35 = and i32 %30, 255
  %36 = lshr i32 %30, 8
  %37 = and i32 %36, 255
  %38 = lshr i32 %30, 16
  %39 = and i32 %38, 255
  %40 = mul nuw nsw i32 %39, 19672
  %41 = mul nuw nsw i32 %37, 38621
  %42 = mul nuw nsw i32 %35, 7500
  %43 = add nuw nsw i32 %41, %42
  %44 = add nuw nsw i32 %43, %40
  %45 = lshr i32 %44, 8
  %46 = icmp ult i32 %32, -131071
  br i1 %46, label %49, label %47

47:                                               ; preds = %34
  %48 = mul nuw i32 %45, %.fr134
  br label %56

49:                                               ; preds = %34
  %50 = sub nuw nsw i32 65535, %33
  %51 = load i16, ptr %.3108.us.us, align 2
  %52 = zext i16 %51 to i32
  %53 = mul nuw i32 %50, %52
  %54 = mul i32 %45, %.fr134
  %55 = add i32 %53, %54
  br label %56

56:                                               ; preds = %49, %47
  %.0109.us.us.in = phi i32 [ %55, %49 ], [ %48, %47 ]
  %.0109.us.us = udiv i32 %.0109.us.us.in, 65535
  %57 = trunc i32 %.0109.us.us to i16
  store i16 %57, ptr %.3108.us.us, align 2
  br label %58

58:                                               ; preds = %56, %29
  %59 = ptrtoint ptr %.3.us.us to i64
  %60 = add nsw i64 %59, 4
  %61 = inttoptr i64 %60 to ptr
  %62 = ptrtoint ptr %.3108.us.us to i64
  %63 = add nsw i64 %62, 2
  %64 = inttoptr i64 %63 to ptr
  %65 = add nsw i32 %.0110.us.us, -1
  %66 = icmp sgt i32 %.0110.us.us, 1
  br i1 %66, label %29, label %.split132.us.us, !llvm.loop !59

.split132.us.us:                                  ; preds = %58
  %67 = add nsw i64 %60, %25
  %68 = inttoptr i64 %67 to ptr
  %69 = add nsw i64 %63, %28
  %70 = inttoptr i64 %69 to ptr
  %71 = add nsw i32 %.1102.us, -1
  %72 = icmp sgt i32 %.1102.us, 1
  br i1 %72, label %.split.us.us, label %.loopexit, !llvm.loop !60

73:                                               ; preds = %11
  %74 = sext i32 %3 to i64
  %75 = getelementptr inbounds i8, ptr %2, i64 %74
  %76 = sub nsw i32 %4, %5
  %77 = sext i32 %22 to i64
  %78 = mul i32 %.fr134, 257
  %79 = sext i32 %24 to i64
  %80 = sext i32 %76 to i64
  br label %81

81:                                               ; preds = %131, %73
  %.0105 = phi ptr [ %0, %73 ], [ %135, %131 ]
  %.0103 = phi ptr [ %1, %73 ], [ %133, %131 ]
  %.0101 = phi i32 [ %6, %73 ], [ %139, %131 ]
  %.0 = phi ptr [ %75, %73 ], [ %138, %131 ]
  br label %82

82:                                               ; preds = %122, %81
  %.0111 = phi i32 [ %5, %81 ], [ %129, %122 ]
  %.1106 = phi ptr [ %.0105, %81 ], [ %128, %122 ]
  %.1104 = phi ptr [ %.0103, %81 ], [ %125, %122 ]
  %.1 = phi ptr [ %.0, %81 ], [ %83, %122 ]
  %83 = getelementptr inbounds i8, ptr %.1, i64 1
  %84 = load i8, ptr %.1, align 1
  %.not124 = icmp eq i8 %84, 0
  br i1 %.not124, label %122, label %85

85:                                               ; preds = %82
  %86 = zext i8 %84 to i32
  %87 = mul i32 %78, %86
  %88 = udiv i32 %87, 65535
  %89 = load i32, ptr %.1104, align 4
  %90 = lshr i32 %89, 24
  %91 = mul nuw nsw i32 %88, 257
  %92 = mul nuw i32 %91, %90
  %93 = udiv i32 %92, 65535
  %.not125 = icmp ult i32 %92, 65535
  br i1 %.not125, label %122, label %94

94:                                               ; preds = %85
  %95 = and i32 %89, 255
  %96 = lshr i32 %89, 8
  %97 = and i32 %96, 255
  %98 = lshr i32 %89, 16
  %99 = and i32 %98, 255
  %100 = mul nuw nsw i32 %99, 19672
  %101 = mul nuw nsw i32 %97, 38621
  %102 = mul nuw nsw i32 %95, 7500
  %103 = add nuw nsw i32 %101, %102
  %104 = add nuw nsw i32 %103, %100
  %105 = lshr i32 %104, 8
  %106 = icmp ult i32 %92, -131071
  br i1 %106, label %107, label %115

107:                                              ; preds = %94
  %108 = sub nuw nsw i32 65535, %93
  %109 = load i16, ptr %.1106, align 2
  %110 = zext i16 %109 to i32
  %111 = mul nuw i32 %108, %110
  %112 = mul nuw i32 %105, %88
  %113 = add i32 %111, %112
  %114 = udiv i32 %113, 65535
  br label %120

115:                                              ; preds = %94
  %116 = icmp ult i32 %87, -131071
  br i1 %116, label %117, label %120

117:                                              ; preds = %115
  %118 = mul nuw i32 %105, %88
  %119 = udiv i32 %118, 65535
  br label %120

120:                                              ; preds = %115, %117, %107
  %.0112 = phi i32 [ %114, %107 ], [ %119, %117 ], [ %105, %115 ]
  %121 = trunc i32 %.0112 to i16
  store i16 %121, ptr %.1106, align 2
  br label %122

122:                                              ; preds = %85, %120, %82
  %123 = ptrtoint ptr %.1104 to i64
  %124 = add nsw i64 %123, 4
  %125 = inttoptr i64 %124 to ptr
  %126 = ptrtoint ptr %.1106 to i64
  %127 = add nsw i64 %126, 2
  %128 = inttoptr i64 %127 to ptr
  %129 = add nsw i32 %.0111, -1
  %130 = icmp sgt i32 %.0111, 1
  br i1 %130, label %82, label %131, !llvm.loop !61

131:                                              ; preds = %122
  %132 = add nsw i64 %124, %77
  %133 = inttoptr i64 %132 to ptr
  %134 = add nsw i64 %127, %79
  %135 = inttoptr i64 %134 to ptr
  %136 = ptrtoint ptr %83 to i64
  %137 = add nsw i64 %136, %80
  %138 = inttoptr i64 %137 to ptr
  %139 = add nsw i32 %.0101, -1
  %140 = icmp sgt i32 %.0101, 1
  br i1 %140, label %81, label %.loopexit, !llvm.loop !62

.split:                                           ; preds = %.preheader, %.split132
  %.2107 = phi ptr [ %181, %.split132 ], [ %0, %.preheader ]
  %.2 = phi ptr [ %179, %.split132 ], [ %1, %.preheader ]
  %.1102 = phi i32 [ %182, %.split132 ], [ %6, %.preheader ]
  br label %141

141:                                              ; preds = %169, %.split
  %.0110 = phi i32 [ %5, %.split ], [ %176, %169 ]
  %.3108 = phi ptr [ %.2107, %.split ], [ %175, %169 ]
  %.3 = phi ptr [ %.2, %.split ], [ %172, %169 ]
  %142 = load i32, ptr %.3, align 4
  %143 = lshr i32 %142, 24
  %144 = mul i32 %26, %143
  %145 = udiv i32 %144, 65535
  %.not123 = icmp ult i32 %144, 65535
  br i1 %.not123, label %169, label %146

146:                                              ; preds = %141
  %147 = and i32 %142, 255
  %148 = lshr i32 %142, 8
  %149 = and i32 %148, 255
  %150 = lshr i32 %142, 16
  %151 = and i32 %150, 255
  %152 = mul nuw nsw i32 %151, 19672
  %153 = mul nuw nsw i32 %149, 38621
  %154 = mul nuw nsw i32 %147, 7500
  %155 = add nuw nsw i32 %153, %154
  %156 = add nuw nsw i32 %155, %152
  %157 = lshr i32 %156, 8
  %158 = icmp ult i32 %144, -131071
  br i1 %158, label %159, label %167

159:                                              ; preds = %146
  %160 = sub nuw nsw i32 65535, %145
  %161 = load i16, ptr %.3108, align 2
  %162 = zext i16 %161 to i32
  %163 = mul nuw i32 %160, %162
  %164 = mul i32 %157, %.fr134
  %165 = add i32 %163, %164
  %166 = udiv i32 %165, 65535
  br label %167

167:                                              ; preds = %146, %159
  %.0109 = phi i32 [ %166, %159 ], [ %157, %146 ]
  %168 = trunc i32 %.0109 to i16
  store i16 %168, ptr %.3108, align 2
  br label %169

169:                                              ; preds = %167, %141
  %170 = ptrtoint ptr %.3 to i64
  %171 = add nsw i64 %170, 4
  %172 = inttoptr i64 %171 to ptr
  %173 = ptrtoint ptr %.3108 to i64
  %174 = add nsw i64 %173, 2
  %175 = inttoptr i64 %174 to ptr
  %176 = add nsw i32 %.0110, -1
  %177 = icmp sgt i32 %.0110, 1
  br i1 %177, label %141, label %.split132, !llvm.loop !59

.split132:                                        ; preds = %169
  %178 = add nsw i64 %171, %25
  %179 = inttoptr i64 %178 to ptr
  %180 = add nsw i64 %174, %28
  %181 = inttoptr i64 %180 to ptr
  %182 = add nsw i32 %.1102, -1
  %183 = icmp sgt i32 %.1102, 1
  br i1 %183, label %.split, label %.loopexit, !llvm.loop !60

.loopexit:                                        ; preds = %131, %.split132, %.split132.us.us
  ret void
}